target datalayout = "e-m:e-p270:32:32-p271:32:32-p272:64:64-i64:64-i128:128-f80:128-n8:16:32:64-S128"
target triple = "x86_64-unknown-linux-gnu"

%struct.ecc_set_type = type { i32, i32, ptr, ptr, ptr, ptr, ptr, ptr, ptr, ptr, i32, i32, i32 }

; Function Attrs: nounwind uwtable
define i32 @wc_ecc_get_curve_idx(i32 noundef %curve_id) #0 {
entry:
  %retval = alloca i32, align 4
  %curve_id.addr = alloca i32, align 4
  %curve_idx = alloca i32, align 4
  store i32 %curve_id, ptr %curve_id.addr, align 4
  store i32 0, ptr %curve_idx, align 4
  br label %for.cond

for.cond:                                         ; preds = %for.inc, %entry
  %0 = load i32, ptr %curve_idx, align 4
  %idxprom = sext i32 %0 to i64
  %arrayidx = getelementptr inbounds [6 x %struct.ecc_set_type], ptr @ecc_sets, i64 0, i64 %idxprom
  %size = getelementptr inbounds %struct.ecc_set_type, ptr %arrayidx, i32 0, i32 0
  %1 = load i32, ptr %size, align 8
  %cmp = icmp ne i32 %1, 0
  br i1 %cmp, label %for.body, label %for.end

for.body:                                         ; preds = %for.cond
  %2 = load i32, ptr %curve_id.addr, align 4
  %3 = load i32, ptr %curve_idx, align 4
  %idxprom1 = sext i32 %3 to i64
  %arrayidx2 = getelementptr inbounds [6 x %struct.ecc_set_type], ptr @ecc_sets, i64 0, i64 %idxprom1
  %id = getelementptr inbounds %struct.ecc_set_type, ptr %arrayidx2, i32 0, i32 1
  %4 = load i32, ptr %id, align 4
  %cmp3 = icmp eq i32 %2, %4
  br i1 %cmp3, label %if.then, label %if.end

if.then:                                          ; preds = %for.body
  br label %for.end

if.end:                                           ; preds = %for.body
  br label %for.inc

for.inc:                                          ; preds = %if.end
  %5 = load i32, ptr %curve_idx, align 4
  %inc = add nsw i32 %5, 1
  store i32 %inc, ptr %curve_idx, align 4
  br label %for.cond, !llvm.loop !4

for.end:                                          ; preds = %if.then, %for.cond
  %6 = load i32, ptr %curve_idx, align 4
  %idxprom4 = sext i32 %6 to i64
  %arrayidx5 = getelementptr inbounds [6 x %struct.ecc_set_type], ptr @ecc_sets, i64 0, i64 %idxprom4
  %size6 = getelementptr inbounds %struct.ecc_set_type, ptr %arrayidx5, i32 0, i32 0
  %7 = load i32, ptr %size6, align 8
  %cmp7 = icmp eq i32 %7, 0
  br i1 %cmp7, label %if.then8, label %if.end9

if.then8:                                         ; preds = %for.end
  store i32 -1, ptr %retval, align 4
  br label %return

if.end9:                                          ; preds = %for.end
  %8 = load i32, ptr %curve_idx, align 4
  store i32 %8, ptr %retval, align 4
  br label %return

return:                                           ; preds = %if.end9, %if.then8
  %9 = load i32, ptr %retval, align 4
  ret i32 %9
}