; Function Attrs: nofree norecurse nosync nounwind memory(none) uwtable
define i32 @wc_ecc_get_curve_idx(i32 noundef %curve_id) local_unnamed_addr #0 {
entry:
  br label %for.body

for.body:                                         ; preds = %entry, %for.inc
  %indvars.iv = phi i64 [ 0, %entry ], [ %indvars.iv.next, %for.inc ]
  %arrayidx6 = phi ptr [ @ecc_sets, %entry ], [ %arrayidx, %for.inc ]
  %id = getelementptr inbounds nuw i8, ptr %arrayidx6, i64 4
  %0 = load i32, ptr %id, align 4
  %cmp3 = icmp eq i32 %curve_id, %0
  br i1 %cmp3, label %for.end.split.loop.exit, label %for.inc

for.inc:                                          ; preds = %for.body
  %indvars.iv.next = add nuw nsw i64 %indvars.iv, 1
  %arrayidx = getelementptr inbounds nuw [6 x %struct.ecc_set_type], ptr @ecc_sets, i64 0, i64 %indvars.iv.next
  %exitcond = icmp eq i64 %indvars.iv.next, 5
  br i1 %exitcond, label %for.end, label %for.body, !llvm.loop !4

for.end.split.loop.exit:                          ; preds = %for.body
  %1 = trunc nuw nsw i64 %indvars.iv to i32
  br label %for.end

for.end:                                          ; preds = %for.inc, %for.end.split.loop.exit
  %.curve_idx.0 = phi i32 [ %1, %for.end.split.loop.exit ], [ -1, %for.inc ]
  ret i32 %.curve_idx.0
}